target datalayout = "e-m:e-p270:32:32-p271:32:32-p272:64:64-i64:64-i128:128-f80:128-n8:16:32:64-S128"
target triple = "x86_64-pc-linux-gnu"

%"class.std::__cxx11::basic_string" = type { %"struct.std::__cxx11::basic_string<char>::_Alloc_hider", i64, %union.anon }
%"struct.std::__cxx11::basic_string<char>::_Alloc_hider" = type { ptr }
%union.anon = type { i64, [8 x i8] }
%"class.__gnu_cxx::__normal_iterator.20" = type { ptr }
%"class.std::reverse_iterator.22" = type { %"class.__gnu_cxx::__normal_iterator.20" }
%class.anon.21 = type { ptr }
%"struct.__gnu_cxx::__ops::_Iter_comp_iter.24" = type { %class.anon.21 }

; Function Attrs: mustprogress nounwind uwtable
define linkonce_odr dso_local void @_ZN9__gnu_cxx17__normal_iteratorIPNSt7__cxx1112basic_stringIcSt11char_traitsIcESaIcEEESt6vectorIS6_SaIS6_EEEC2ERKS7_(ptr noundef nonnull align 8 dereferenceable(8) %0, ptr noundef nonnull align 8 dereferenceable(8) %1) unnamed_addr #0 comdat align 2 {
  %3 = alloca ptr, align 8
  %4 = alloca ptr, align 8
  store ptr %0, ptr %3, align 8, !tbaa !168
  store ptr %1, ptr %4, align 8, !tbaa !170
  %5 = load ptr, ptr %3, align 8
  %6 = getelementptr inbounds nuw %"class.__gnu_cxx::__normal_iterator.20", ptr %5, i32 0, i32 0
  %7 = load ptr, ptr %4, align 8, !tbaa !170
  %8 = load ptr, ptr %7, align 8, !tbaa !17
  store ptr %8, ptr %6, align 8, !tbaa !172
  ret void
}

; Function Attrs: mustprogress nounwind uwtable
define linkonce_odr dso_local noundef nonnull align 8 dereferenceable(8) ptr @_ZNK9__gnu_cxx17__normal_iteratorIPNSt7__cxx1112basic_stringIcSt11char_traitsIcESaIcEEESt6vectorIS6_SaIS6_EEE4baseEv(ptr noundef nonnull align 8 dereferenceable(8) %0) #0 comdat align 2 {
  %2 = alloca ptr, align 8
  store ptr %0, ptr %2, align 8, !tbaa !168
  %3 = load ptr, ptr %2, align 8
  %4 = getelementptr inbounds nuw %"class.__gnu_cxx::__normal_iterator.20", ptr %3, i32 0, i32 0
  ret ptr %4
}

; Function Attrs: mustprogress nounwind uwtable
define linkonce_odr dso_local void @_ZNSt16reverse_iteratorIN9__gnu_cxx17__normal_iteratorIPNSt7__cxx1112basic_stringIcSt11char_traitsIcESaIcEEESt6vectorIS7_SaIS7_EEEEEC2ESC_(ptr noundef nonnull align 8 dereferenceable(8) %0, ptr %1) unnamed_addr #0 comdat align 2 {
  %3 = alloca %"class.__gnu_cxx::__normal_iterator.20", align 8
  %4 = alloca ptr, align 8
  %5 = getelementptr inbounds nuw %"class.__gnu_cxx::__normal_iterator.20", ptr %3, i32 0, i32 0
  store ptr %1, ptr %5, align 8
  store ptr %0, ptr %4, align 8, !tbaa !175
  %6 = load ptr, ptr %4, align 8
  %7 = getelementptr inbounds nuw %"class.std::reverse_iterator.22", ptr %6, i32 0, i32 0
  call void @llvm.memcpy.p0.p0.i64(ptr align 8 %7, ptr align 8 %3, i64 8, i1 false), !tbaa.struct !178
  ret void
}

; Function Attrs: mustprogress nounwind uwtable
define linkonce_odr dso_local ptr @_ZNK9__gnu_cxx17__normal_iteratorIPNSt7__cxx1112basic_stringIcSt11char_traitsIcESaIcEEESt6vectorIS6_SaIS6_EEEmiEl(ptr noundef nonnull align 8 dereferenceable(8) %0, i64 noundef %1) #0 comdat align 2 {
  %3 = alloca %"class.__gnu_cxx::__normal_iterator.20", align 8
  %4 = alloca ptr, align 8
  %5 = alloca i64, align 8
  %6 = alloca ptr, align 8
  store ptr %0, ptr %4, align 8, !tbaa !168
  store i64 %1, ptr %5, align 8, !tbaa !27
  %7 = load ptr, ptr %4, align 8
  call void @llvm.lifetime.start.p0(i64 8, ptr %6) #18
  %8 = getelementptr inbounds nuw %"class.__gnu_cxx::__normal_iterator.20", ptr %7, i32 0, i32 0
  %9 = load ptr, ptr %8, align 8, !tbaa !172
  %10 = load i64, ptr %5, align 8, !tbaa !27
  %11 = sub i64 0, %10
  %12 = getelementptr inbounds %"class.std::__cxx11::basic_string", ptr %9, i64 %11
  store ptr %12, ptr %6, align 8, !tbaa !17
  call void @_ZN9__gnu_cxx17__normal_iteratorIPNSt7__cxx1112basic_stringIcSt11char_traitsIcESaIcEEESt6vectorIS6_SaIS6_EEEC2ERKS7_(ptr noundef nonnull align 8 dereferenceable(8) %3, ptr noundef nonnull align 8 dereferenceable(8) %6) #18
  call void @llvm.lifetime.end.p0(i64 8, ptr %6) #18
  %13 = getelementptr inbounds nuw %"class.__gnu_cxx::__normal_iterator.20", ptr %3, i32 0, i32 0
  %14 = load ptr, ptr %13, align 8
  ret ptr %14
}

; Function Attrs: inlinehint mustprogress nounwind uwtable
define linkonce_odr dso_local noundef i64 @_ZN9__gnu_cxxmiIPNSt7__cxx1112basic_stringIcSt11char_traitsIcESaIcEEESt6vectorIS6_SaIS6_EEEENS_17__normal_iteratorIT_T0_E15difference_typeERKSE_SH_(ptr noundef nonnull align 8 dereferenceable(8) %0, ptr noundef nonnull align 8 dereferenceable(8) %1) #1 comdat {
  %3 = alloca ptr, align 8
  %4 = alloca ptr, align 8
  store ptr %0, ptr %3, align 8, !tbaa !168
  store ptr %1, ptr %4, align 8, !tbaa !168
  %5 = load ptr, ptr %3, align 8, !tbaa !168
  %6 = call noundef nonnull align 8 dereferenceable(8) ptr @_ZNK9__gnu_cxx17__normal_iteratorIPNSt7__cxx1112basic_stringIcSt11char_traitsIcESaIcEEESt6vectorIS6_SaIS6_EEE4baseEv(ptr noundef nonnull align 8 dereferenceable(8) %5) #18
  %7 = load ptr, ptr %6, align 8, !tbaa !17
  %8 = load ptr, ptr %4, align 8, !tbaa !168
  %9 = call noundef nonnull align 8 dereferenceable(8) ptr @_ZNK9__gnu_cxx17__normal_iteratorIPNSt7__cxx1112basic_stringIcSt11char_traitsIcESaIcEEESt6vectorIS6_SaIS6_EEE4baseEv(ptr noundef nonnull align 8 dereferenceable(8) %8) #18
  %10 = load ptr, ptr %9, align 8, !tbaa !17
  %11 = ptrtoint ptr %7 to i64
  %12 = ptrtoint ptr %10 to i64
  %13 = sub i64 %11, %12
  %14 = sdiv exact i64 %13, 32
  ret i64 %14
}

; Function Attrs: mustprogress nounwind uwtable
define linkonce_odr dso_local ptr @_ZNKSt16reverse_iteratorIN9__gnu_cxx17__normal_iteratorIPNSt7__cxx1112basic_stringIcSt11char_traitsIcESaIcEEESt6vectorIS7_SaIS7_EEEEE4baseEv(ptr noundef nonnull align 8 dereferenceable(8) %0) #0 comdat align 2 {
  %2 = alloca %"class.__gnu_cxx::__normal_iterator.20", align 8
  %3 = alloca ptr, align 8
  store ptr %0, ptr %3, align 8, !tbaa !175
  %4 = load ptr, ptr %3, align 8
  %5 = getelementptr inbounds nuw %"class.std::reverse_iterator.22", ptr %4, i32 0, i32 0
  call void @llvm.memcpy.p0.p0.i64(ptr align 8 %2, ptr align 8 %5, i64 8, i1 false), !tbaa.struct !178
  %6 = getelementptr inbounds nuw %"class.__gnu_cxx::__normal_iterator.20", ptr %2, i32 0, i32 0
  %7 = load ptr, ptr %6, align 8
  ret ptr %7
}

; Function Attrs: mustprogress nounwind uwtable
define linkonce_odr dso_local void @_ZNSt16reverse_iteratorIN9__gnu_cxx17__normal_iteratorIPNSt7__cxx1112basic_stringIcSt11char_traitsIcESaIcEEESt6vectorIS7_SaIS7_EEEEEC2ERKSD_(ptr noundef nonnull align 8 dereferenceable(8) %0, ptr noundef nonnull align 8 dereferenceable(8) %1) unnamed_addr #0 comdat align 2 {
  %3 = alloca ptr, align 8
  %4 = alloca ptr, align 8
  store ptr %0, ptr %3, align 8, !tbaa !175
  store ptr %1, ptr %4, align 8, !tbaa !175
  %5 = load ptr, ptr %3, align 8
  %6 = getelementptr inbounds nuw %"class.std::reverse_iterator.22", ptr %5, i32 0, i32 0
  %7 = load ptr, ptr %4, align 8, !tbaa !175
  %8 = getelementptr inbounds nuw %"class.std::reverse_iterator.22", ptr %7, i32 0, i32 0
  call void @llvm.memcpy.p0.p0.i64(ptr align 8 %6, ptr align 8 %8, i64 8, i1 false), !tbaa.struct !178
  ret void
}

; Function Attrs: mustprogress nounwind uwtable
define linkonce_odr dso_local void @_ZNKSt16reverse_iteratorIN9__gnu_cxx17__normal_iteratorIPNSt7__cxx1112basic_stringIcSt11char_traitsIcESaIcEEESt6vectorIS7_SaIS7_EEEEEplEl(ptr dead_on_unwind noalias writable sret(%"class.std::reverse_iterator.22") align 8 %0, ptr noundef nonnull align 8 dereferenceable(8) %1, i64 noundef %2) #0 comdat align 2 {
  %4 = alloca ptr, align 8
  %5 = alloca ptr, align 8
  %6 = alloca i64, align 8
  %7 = alloca %"class.__gnu_cxx::__normal_iterator.20", align 8
  store ptr %0, ptr %4, align 8
  store ptr %1, ptr %5, align 8, !tbaa !175
  store i64 %2, ptr %6, align 8, !tbaa !27
  %8 = load ptr, ptr %5, align 8
  %9 = getelementptr inbounds nuw %"class.std::reverse_iterator.22", ptr %8, i32 0, i32 0
  %10 = load i64, ptr %6, align 8, !tbaa !27
  %11 = call ptr @_ZNK9__gnu_cxx17__normal_iteratorIPNSt7__cxx1112basic_stringIcSt11char_traitsIcESaIcEEESt6vectorIS6_SaIS6_EEEmiEl(ptr noundef nonnull align 8 dereferenceable(8) %9, i64 noundef %10) #18
  %12 = getelementptr inbounds nuw %"class.__gnu_cxx::__normal_iterator.20", ptr %7, i32 0, i32 0
  store ptr %11, ptr %12, align 8
  %13 = getelementptr inbounds nuw %"class.__gnu_cxx::__normal_iterator.20", ptr %7, i32 0, i32 0
  %14 = load ptr, ptr %13, align 8
  call void @_ZNSt16reverse_iteratorIN9__gnu_cxx17__normal_iteratorIPNSt7__cxx1112basic_stringIcSt11char_traitsIcESaIcEEESt6vectorIS7_SaIS7_EEEEEC2ESC_(ptr noundef nonnull align 8 dereferenceable(8) %0, ptr %14) #18
  ret void
}

; Function Attrs: inlinehint mustprogress nounwind uwtable
define linkonce_odr dso_local noundef i64 @_ZStmiIN9__gnu_cxx17__normal_iteratorIPNSt7__cxx1112basic_stringIcSt11char_traitsIcESaIcEEESt6vectorIS7_SaIS7_EEEESC_EDTmicldtfp0_4baseEcldtfp_4baseEERKSt16reverse_iteratorIT_ERKSE_IT0_E(ptr noundef nonnull align 8 dereferenceable(8) %0, ptr noundef nonnull align 8 dereferenceable(8) %1) #1 comdat {
  %3 = alloca ptr, align 8
  %4 = alloca ptr, align 8
  %5 = alloca %"class.__gnu_cxx::__normal_iterator.20", align 8
  %6 = alloca %"class.__gnu_cxx::__normal_iterator.20", align 8
  store ptr %0, ptr %3, align 8, !tbaa !175
  store ptr %1, ptr %4, align 8, !tbaa !175
  call void @llvm.lifetime.start.p0(i64 8, ptr %5) #18
  %7 = load ptr, ptr %4, align 8, !tbaa !175
  %8 = call ptr @_ZNKSt16reverse_iteratorIN9__gnu_cxx17__normal_iteratorIPNSt7__cxx1112basic_stringIcSt11char_traitsIcESaIcEEESt6vectorIS7_SaIS7_EEEEE4baseEv(ptr noundef nonnull align 8 dereferenceable(8) %7) #18
  %9 = getelementptr inbounds nuw %"class.__gnu_cxx::__normal_iterator.20", ptr %5, i32 0, i32 0
  store ptr %8, ptr %9, align 8
  call void @llvm.lifetime.start.p0(i64 8, ptr %6) #18
  %10 = load ptr, ptr %3, align 8, !tbaa !175
  %11 = call ptr @_ZNKSt16reverse_iteratorIN9__gnu_cxx17__normal_iteratorIPNSt7__cxx1112basic_stringIcSt11char_traitsIcESaIcEEESt6vectorIS7_SaIS7_EEEEE4baseEv(ptr noundef nonnull align 8 dereferenceable(8) %10) #18
  %12 = getelementptr inbounds nuw %"class.__gnu_cxx::__normal_iterator.20", ptr %6, i32 0, i32 0
  store ptr %11, ptr %12, align 8
  %13 = call noundef i64 @_ZN9__gnu_cxxmiIPNSt7__cxx1112basic_stringIcSt11char_traitsIcESaIcEEESt6vectorIS6_SaIS6_EEEENS_17__normal_iteratorIT_T0_E15difference_typeERKSE_SH_(ptr noundef nonnull align 8 dereferenceable(8) %5, ptr noundef nonnull align 8 dereferenceable(8) %6) #18
  call void @llvm.lifetime.end.p0(i64 8, ptr %6) #18
  call void @llvm.lifetime.end.p0(i64 8, ptr %5) #18
  ret i64 %13
}

; Function Attrs: mustprogress uwtable
define internal void @"_ZSt22__stable_sort_adaptiveISt16reverse_iteratorIN9__gnu_cxx17__normal_iteratorIPNSt7__cxx1112basic_stringIcSt11char_traitsIcESaIcEEESt6vectorIS8_SaIS8_EEEEES9_lNS1_5__ops15_Iter_comp_iterIZN12_GLOBAL__N_128RoundRobinAllocationStrategy11InitialSortERKSt3mapIS8_N24cmCTestResourceAllocator8ResourceESt4lessIS8_ESaISt4pairIKS8_SL_EEERSC_E3$_0EEEvT_SY_T0_T1_T2_"(ptr noundef %0, ptr noundef %1, ptr noundef %2, i64 noundef %3, ptr %4) #2 {
  %6 = alloca %"struct.__gnu_cxx::__ops::_Iter_comp_iter.24", align 8
  %7 = alloca ptr, align 8
  %8 = alloca ptr, align 8
  %9 = alloca ptr, align 8
  %10 = alloca i64, align 8
  %11 = alloca i64, align 8
  %12 = alloca %"class.std::reverse_iterator.22", align 8
  %13 = alloca %"class.std::reverse_iterator.22", align 8
  %14 = alloca %"class.std::reverse_iterator.22", align 8
  %15 = alloca %"struct.__gnu_cxx::__ops::_Iter_comp_iter.24", align 8
  %16 = alloca %"class.std::reverse_iterator.22", align 8
  %17 = alloca %"class.std::reverse_iterator.22", align 8
  %18 = alloca %"struct.__gnu_cxx::__ops::_Iter_comp_iter.24", align 8
  %19 = alloca %"class.std::reverse_iterator.22", align 8
  %20 = alloca %"class.std::reverse_iterator.22", align 8
  %21 = alloca %"struct.__gnu_cxx::__ops::_Iter_comp_iter.24", align 8
  %22 = alloca %"class.std::reverse_iterator.22", align 8
  %23 = alloca %"class.std::reverse_iterator.22", align 8
  %24 = alloca %"struct.__gnu_cxx::__ops::_Iter_comp_iter.24", align 8
  %25 = alloca %"class.std::reverse_iterator.22", align 8
  %26 = alloca %"class.std::reverse_iterator.22", align 8
  %27 = alloca %"class.std::reverse_iterator.22", align 8
  %28 = alloca %"struct.__gnu_cxx::__ops::_Iter_comp_iter.24", align 8
  %29 = getelementptr inbounds nuw %"struct.__gnu_cxx::__ops::_Iter_comp_iter.24", ptr %6, i32 0, i32 0
  %30 = getelementptr inbounds nuw %class.anon.21, ptr %29, i32 0, i32 0
  store ptr %4, ptr %30, align 8
  store ptr %0, ptr %7, align 8, !tbaa !175
  store ptr %1, ptr %8, align 8, !tbaa !175
  store ptr %2, ptr %9, align 8, !tbaa !17
  store i64 %3, ptr %10, align 8, !tbaa !27
  call void @llvm.lifetime.start.p0(i64 8, ptr %11) #18
  %31 = call noundef i64 @_ZStmiIN9__gnu_cxx17__normal_iteratorIPNSt7__cxx1112basic_stringIcSt11char_traitsIcESaIcEEESt6vectorIS7_SaIS7_EEEESC_EDTmicldtfp0_4baseEcldtfp_4baseEERKSt16reverse_iteratorIT_ERKSE_IT0_E(ptr noundef nonnull align 8 dereferenceable(8) %1, ptr noundef nonnull align 8 dereferenceable(8) %0)
  %32 = add nsw i64 %31, 1
  %33 = sdiv i64 %32, 2
  store i64 %33, ptr %11, align 8, !tbaa !27
  call void @llvm.lifetime.start.p0(i64 8, ptr %12) #18
  %34 = load i64, ptr %11, align 8, !tbaa !27
  call void @_ZNKSt16reverse_iteratorIN9__gnu_cxx17__normal_iteratorIPNSt7__cxx1112basic_stringIcSt11char_traitsIcESaIcEEESt6vectorIS7_SaIS7_EEEEEplEl(ptr dead_on_unwind writable sret(%"class.std::reverse_iterator.22") align 8 %12, ptr noundef nonnull align 8 dereferenceable(8) %0, i64 noundef %34)
  %35 = load i64, ptr %11, align 8, !tbaa !27
  %36 = load i64, ptr %10, align 8, !tbaa !27
  %37 = icmp sgt i64 %35, %36
  br i1 %37, label %38, label %49

38:                                               ; preds = %5
  call void @_ZNSt16reverse_iteratorIN9__gnu_cxx17__normal_iteratorIPNSt7__cxx1112basic_stringIcSt11char_traitsIcESaIcEEESt6vectorIS7_SaIS7_EEEEEC2ERKSD_(ptr noundef nonnull align 8 dereferenceable(8) %13, ptr noundef nonnull align 8 dereferenceable(8) %0) #18
  call void @_ZNSt16reverse_iteratorIN9__gnu_cxx17__normal_iteratorIPNSt7__cxx1112basic_stringIcSt11char_traitsIcESaIcEEESt6vectorIS7_SaIS7_EEEEEC2ERKSD_(ptr noundef nonnull align 8 dereferenceable(8) %14, ptr noundef nonnull align 8 dereferenceable(8) %12) #18
  %39 = load ptr, ptr %9, align 8, !tbaa !17
  %40 = load i64, ptr %10, align 8, !tbaa !27
  call void @llvm.memcpy.p0.p0.i64(ptr align 8 %15, ptr align 8 %6, i64 8, i1 false), !tbaa.struct !177
  %41 = getelementptr inbounds nuw %"struct.__gnu_cxx::__ops::_Iter_comp_iter.24", ptr %15, i32 0, i32 0
  %42 = getelementptr inbounds nuw %class.anon.21, ptr %41, i32 0, i32 0
  %43 = load ptr, ptr %42, align 8
  call void @"_ZSt22__stable_sort_adaptiveISt16reverse_iteratorIN9__gnu_cxx17__normal_iteratorIPNSt7__cxx1112basic_stringIcSt11char_traitsIcESaIcEEESt6vectorIS8_SaIS8_EEEEES9_lNS1_5__ops15_Iter_comp_iterIZN12_GLOBAL__N_128RoundRobinAllocationStrategy11InitialSortERKSt3mapIS8_N24cmCTestResourceAllocator8ResourceESt4lessIS8_ESaISt4pairIKS8_SL_EEERSC_E3$_0EEEvT_SY_T0_T1_T2_"(ptr noundef %13, ptr noundef %14, ptr noundef %39, i64 noundef %40, ptr %43)
  call void @_ZNSt16reverse_iteratorIN9__gnu_cxx17__normal_iteratorIPNSt7__cxx1112basic_stringIcSt11char_traitsIcESaIcEEESt6vectorIS7_SaIS7_EEEEEC2ERKSD_(ptr noundef nonnull align 8 dereferenceable(8) %16, ptr noundef nonnull align 8 dereferenceable(8) %12) #18
  call void @_ZNSt16reverse_iteratorIN9__gnu_cxx17__normal_iteratorIPNSt7__cxx1112basic_stringIcSt11char_traitsIcESaIcEEESt6vectorIS7_SaIS7_EEEEEC2ERKSD_(ptr noundef nonnull align 8 dereferenceable(8) %17, ptr noundef nonnull align 8 dereferenceable(8) %1) #18
  %44 = load ptr, ptr %9, align 8, !tbaa !17
  %45 = load i64, ptr %10, align 8, !tbaa !27
  call void @llvm.memcpy.p0.p0.i64(ptr align 8 %18, ptr align 8 %6, i64 8, i1 false), !tbaa.struct !177
  %46 = getelementptr inbounds nuw %"struct.__gnu_cxx::__ops::_Iter_comp_iter.24", ptr %18, i32 0, i32 0
  %47 = getelementptr inbounds nuw %class.anon.21, ptr %46, i32 0, i32 0
  %48 = load ptr, ptr %47, align 8
  call void @"_ZSt22__stable_sort_adaptiveISt16reverse_iteratorIN9__gnu_cxx17__normal_iteratorIPNSt7__cxx1112basic_stringIcSt11char_traitsIcESaIcEEESt6vectorIS8_SaIS8_EEEEES9_lNS1_5__ops15_Iter_comp_iterIZN12_GLOBAL__N_128RoundRobinAllocationStrategy11InitialSortERKSt3mapIS8_N24cmCTestResourceAllocator8ResourceESt4lessIS8_ESaISt4pairIKS8_SL_EEERSC_E3$_0EEEvT_SY_T0_T1_T2_"(ptr noundef %16, ptr noundef %17, ptr noundef %44, i64 noundef %45, ptr %48)
  br label %58

49:                                               ; preds = %5
  call void @_ZNSt16reverse_iteratorIN9__gnu_cxx17__normal_iteratorIPNSt7__cxx1112basic_stringIcSt11char_traitsIcESaIcEEESt6vectorIS7_SaIS7_EEEEEC2ERKSD_(ptr noundef nonnull align 8 dereferenceable(8) %19, ptr noundef nonnull align 8 dereferenceable(8) %0) #18
  call void @_ZNSt16reverse_iteratorIN9__gnu_cxx17__normal_iteratorIPNSt7__cxx1112basic_stringIcSt11char_traitsIcESaIcEEESt6vectorIS7_SaIS7_EEEEEC2ERKSD_(ptr noundef nonnull align 8 dereferenceable(8) %20, ptr noundef nonnull align 8 dereferenceable(8) %12) #18
  %50 = load ptr, ptr %9, align 8, !tbaa !17
  call void @llvm.memcpy.p0.p0.i64(ptr align 8 %21, ptr align 8 %6, i64 8, i1 false), !tbaa.struct !177
  %51 = getelementptr inbounds nuw %"struct.__gnu_cxx::__ops::_Iter_comp_iter.24", ptr %21, i32 0, i32 0
  %52 = getelementptr inbounds nuw %class.anon.21, ptr %51, i32 0, i32 0
  %53 = load ptr, ptr %52, align 8
  call void @"_ZSt24__merge_sort_with_bufferISt16reverse_iteratorIN9__gnu_cxx17__normal_iteratorIPNSt7__cxx1112basic_stringIcSt11char_traitsIcESaIcEEESt6vectorIS8_SaIS8_EEEEES9_NS1_5__ops15_Iter_comp_iterIZN12_GLOBAL__N_128RoundRobinAllocationStrategy11InitialSortERKSt3mapIS8_N24cmCTestResourceAllocator8ResourceESt4lessIS8_ESaISt4pairIKS8_SL_EEERSC_E3$_0EEEvT_SY_T0_T1_"(ptr noundef %19, ptr noundef %20, ptr noundef %50, ptr %53)
  call void @_ZNSt16reverse_iteratorIN9__gnu_cxx17__normal_iteratorIPNSt7__cxx1112basic_stringIcSt11char_traitsIcESaIcEEESt6vectorIS7_SaIS7_EEEEEC2ERKSD_(ptr noundef nonnull align 8 dereferenceable(8) %22, ptr noundef nonnull align 8 dereferenceable(8) %12) #18
  call void @_ZNSt16reverse_iteratorIN9__gnu_cxx17__normal_iteratorIPNSt7__cxx1112basic_stringIcSt11char_traitsIcESaIcEEESt6vectorIS7_SaIS7_EEEEEC2ERKSD_(ptr noundef nonnull align 8 dereferenceable(8) %23, ptr noundef nonnull align 8 dereferenceable(8) %1) #18
  %54 = load ptr, ptr %9, align 8, !tbaa !17
  call void @llvm.memcpy.p0.p0.i64(ptr align 8 %24, ptr align 8 %6, i64 8, i1 false), !tbaa.struct !177
  %55 = getelementptr inbounds nuw %"struct.__gnu_cxx::__ops::_Iter_comp_iter.24", ptr %24, i32 0, i32 0
  %56 = getelementptr inbounds nuw %class.anon.21, ptr %55, i32 0, i32 0
  %57 = load ptr, ptr %56, align 8
  call void @"_ZSt24__merge_sort_with_bufferISt16reverse_iteratorIN9__gnu_cxx17__normal_iteratorIPNSt7__cxx1112basic_stringIcSt11char_traitsIcESaIcEEESt6vectorIS8_SaIS8_EEEEES9_NS1_5__ops15_Iter_comp_iterIZN12_GLOBAL__N_128RoundRobinAllocationStrategy11InitialSortERKSt3mapIS8_N24cmCTestResourceAllocator8ResourceESt4lessIS8_ESaISt4pairIKS8_SL_EEERSC_E3$_0EEEvT_SY_T0_T1_"(ptr noundef %22, ptr noundef %23, ptr noundef %54, ptr %57)
  br label %58

58:                                               ; preds = %49, %38
  call void @_ZNSt16reverse_iteratorIN9__gnu_cxx17__normal_iteratorIPNSt7__cxx1112basic_stringIcSt11char_traitsIcESaIcEEESt6vectorIS7_SaIS7_EEEEEC2ERKSD_(ptr noundef nonnull align 8 dereferenceable(8) %25, ptr noundef nonnull align 8 dereferenceable(8) %0) #18
  call void @_ZNSt16reverse_iteratorIN9__gnu_cxx17__normal_iteratorIPNSt7__cxx1112basic_stringIcSt11char_traitsIcESaIcEEESt6vectorIS7_SaIS7_EEEEEC2ERKSD_(ptr noundef nonnull align 8 dereferenceable(8) %26, ptr noundef nonnull align 8 dereferenceable(8) %12) #18
  call void @_ZNSt16reverse_iteratorIN9__gnu_cxx17__normal_iteratorIPNSt7__cxx1112basic_stringIcSt11char_traitsIcESaIcEEESt6vectorIS7_SaIS7_EEEEEC2ERKSD_(ptr noundef nonnull align 8 dereferenceable(8) %27, ptr noundef nonnull align 8 dereferenceable(8) %1) #18
  %59 = call noundef i64 @_ZStmiIN9__gnu_cxx17__normal_iteratorIPNSt7__cxx1112basic_stringIcSt11char_traitsIcESaIcEEESt6vectorIS7_SaIS7_EEEESC_EDTmicldtfp0_4baseEcldtfp_4baseEERKSt16reverse_iteratorIT_ERKSE_IT0_E(ptr noundef nonnull align 8 dereferenceable(8) %12, ptr noundef nonnull align 8 dereferenceable(8) %0)
  %60 = call noundef i64 @_ZStmiIN9__gnu_cxx17__normal_iteratorIPNSt7__cxx1112basic_stringIcSt11char_traitsIcESaIcEEESt6vectorIS7_SaIS7_EEEESC_EDTmicldtfp0_4baseEcldtfp_4baseEERKSt16reverse_iteratorIT_ERKSE_IT0_E(ptr noundef nonnull align 8 dereferenceable(8) %1, ptr noundef nonnull align 8 dereferenceable(8) %12)
  %61 = load ptr, ptr %9, align 8, !tbaa !17
  %62 = load i64, ptr %10, align 8, !tbaa !27
  call void @llvm.memcpy.p0.p0.i64(ptr align 8 %28, ptr align 8 %6, i64 8, i1 false), !tbaa.struct !177
  %63 = getelementptr inbounds nuw %"struct.__gnu_cxx::__ops::_Iter_comp_iter.24", ptr %28, i32 0, i32 0
  %64 = getelementptr inbounds nuw %class.anon.21, ptr %63, i32 0, i32 0
  %65 = load ptr, ptr %64, align 8
  %66 = ptrtoint ptr %65 to i64
  call void @"_ZSt16__merge_adaptiveISt16reverse_iteratorIN9__gnu_cxx17__normal_iteratorIPNSt7__cxx1112basic_stringIcSt11char_traitsIcESaIcEEESt6vectorIS8_SaIS8_EEEEElS9_NS1_5__ops15_Iter_comp_iterIZN12_GLOBAL__N_128RoundRobinAllocationStrategy11InitialSortERKSt3mapIS8_N24cmCTestResourceAllocator8ResourceESt4lessIS8_ESaISt4pairIKS8_SL_EEERSC_E3$_0EEEvT_SY_SY_T0_SZ_T1_SZ_T2_"(ptr noundef %25, ptr noundef %26, ptr noundef %27, i64 noundef %59, i64 noundef %60, ptr noundef %61, i64 noundef %62, i64 %66)
  call void @llvm.lifetime.end.p0(i64 8, ptr %12) #18
  call void @llvm.lifetime.end.p0(i64 8, ptr %11) #18
  ret void
}